Certificate:
    Data:
        Version: 3 (0x2)
        Serial Number: 7 (0x7)
    Signature Algorithm: sha256WithRSAEncryption
        Issuer: C=CA, ST=BC, L=Vancouver, O=TMQR, OU=MyOrganizationalUnit, CN=TMQR CA/name=EasyRSA/emailAddress=me@myhost.mydomain
        Validity
            Not Before: Nov 29 18:40:29 2016 GMT
            Not After : Nov 27 18:40:29 2026 GMT
        Subject: C=CA, ST=BC, L=Vancouver, O=TMQR, OU=MyOrganizationalUnit, CN=ben/name=EasyRSA/emailAddress=me@myhost.mydomain
        Subject Public Key Info:
            Public Key Algorithm: rsaEncryption
                Public-Key: (2048 bit)
                Modulus:
                    00:d2:55:0f:4f:d7:4a:7a:b2:6d:2c:d4:09:72:96:
                    9f:ce:bf:9a:e7:5c:81:40:ae:d0:ed:33:b3:6b:38:
                    d5:e3:e6:16:92:95:89:64:e1:99:2f:b2:4f:28:ef:
                    f8:8d:ab:a7:70:47:e6:01:ac:f0:84:2f:ba:ac:6d:
                    fe:8d:58:71:fc:ae:48:96:25:d7:47:52:75:f6:7b:
                    27:ff:a7:79:1b:c5:75:17:91:e8:42:4f:f9:c6:1f:
                    9e:58:d3:42:77:4f:48:ad:e7:79:ba:a3:e8:43:2a:
                    2b:57:de:28:ad:9d:45:52:99:1f:dc:45:49:02:86:
                    37:c6:1a:6a:ed:35:6f:f4:7a:c1:3f:7f:b8:d8:63:
                    da:62:98:55:70:1c:1f:e4:59:c0:33:9a:e5:d8:06:
                    66:50:b5:d0:9f:68:bb:b1:5d:30:be:e0:d5:ce:e3:
                    17:18:8d:a5:d4:1d:a5:44:c0:05:e2:e5:9a:55:7a:
                    7a:3b:14:94:b6:aa:6b:ca:f0:89:b1:ba:47:95:83:
                    51:74:a0:22:61:cb:6a:c3:8d:57:30:33:a5:a5:7c:
                    73:d2:06:d5:0d:6e:f9:d6:7a:6b:a5:18:56:ed:1f:
                    c9:c5:2b:b7:26:37:e6:0b:74:6e:95:a8:43:a7:9c:
                    63:bd:5a:78:42:7c:7b:e0:d4:f2:46:69:71:98:f6:
                    1f:65
                Exponent: 65537 (0x10001)
        X509v3 extensions:
            X509v3 Basic Constraints: 
                CA:FALSE
            Netscape Comment: 
                Easy-RSA Generated Certificate
            X509v3 Subject Key Identifier: 
                A3:A6:64:A8:78:DF:C2:71:6B:98:3E:F6:9D:E6:12:F8:3A:C6:6A:EC
            X509v3 Authority Key Identifier: 
                keyid:59:0C:AF:20:F5:AB:A7:E9:4B:34:5E:07:CA:72:D6:B1:15:92:D1:5C
                DirName:/C=CA/ST=BC/L=Vancouver/O=TMQR/OU=MyOrganizationalUnit/CN=TMQR CA/name=EasyRSA/emailAddress=me@myhost.mydomain
                serial:99:70:9C:FA:53:48:DC:9F

            X509v3 Extended Key Usage: 
                TLS Web Client Authentication
            X509v3 Key Usage: 
                Digital Signature
            X509v3 Subject Alternative Name: 
                DNS:ben
    Signature Algorithm: sha256WithRSAEncryption
         85:f5:d0:7c:fc:7d:6c:e0:39:49:d4:1f:30:fc:d9:0f:f1:2d:
         79:1a:e1:7f:34:2c:a6:05:85:f6:36:61:11:6a:54:3b:bc:8f:
         0b:86:c2:e3:79:47:27:1e:2b:3b:5a:07:2b:8b:da:f1:93:5d:
         28:46:99:27:0d:f2:46:75:42:6d:4a:71:b1:fb:5d:40:a5:e9:
         7f:3e:8b:be:c3:81:5e:72:cf:22:a5:0b:89:fa:e0:c8:25:72:
         19:96:0d:6c:9e:13:5b:56:33:ec:d7:41:14:8a:67:40:9c:3c:
         c8:d9:9b:66:98:ea:e9:71:8d:60:f3:c3:d7:24:27:8a:00:e9:
         25:31:f7:5d:6d:03:87:85:e3:93:a8:39:36:2b:c2:a9:40:34:
         56:96:3d:21:69:51:9b:99:59:d9:94:f4:89:14:eb:7b:f1:eb:
         a6:25:42:ab:8d:07:2c:55:6c:38:d8:bf:e5:3a:4b:26:31:70:
         2f:2e:d9:6b:a5:2b:9d:72:00:82:db:48:9c:f4:f8:b5:54:42:
         30:dd:23:56:34:26:f1:01:a2:6b:78:41:bb:42:fb:f1:ab:27:
         20:63:7d:29:70:58:08:25:80:3b:dd:cd:36:df:c7:89:56:96:
         2d:0b:b5:33:b8:4c:5f:c9:02:b8:3d:d7:dd:91:22:ab:f9:98:
         c8:6f:bc:2e
-----BEGIN CERTIFICATE-----
MIIFKzCCBBOgAwIBAgIBBzANBgkqhkiG9w0BAQsFADCBozELMAkGA1UEBhMCQ0Ex
CzAJBgNVBAgTAkJDMRIwEAYDVQQHEwlWYW5jb3V2ZXIxDTALBgNVBAoTBFRNUVIx
HTAbBgNVBAsTFE15T3JnYW5pemF0aW9uYWxVbml0MRAwDgYDVQQDEwdUTVFSIENB
MRAwDgYDVQQpEwdFYXN5UlNBMSEwHwYJKoZIhvcNAQkBFhJtZUBteWhvc3QubXlk
b21haW4wHhcNMTYxMTI5MTg0MDI5WhcNMjYxMTI3MTg0MDI5WjCBnzELMAkGA1UE
BhMCQ0ExCzAJBgNVBAgTAkJDMRIwEAYDVQQHEwlWYW5jb3V2ZXIxDTALBgNVBAoT
BFRNUVIxHTAbBgNVBAsTFE15T3JnYW5pemF0aW9uYWxVbml0MQwwCgYDVQQDEwNi
ZW4xEDAOBgNVBCkTB0Vhc3lSU0ExITAfBgkqhkiG9w0BCQEWEm1lQG15aG9zdC5t
eWRvbWFpbjCCASIwDQYJKoZIhvcNAQEBBQADggEPADCCAQoCggEBANJVD0/XSnqy
bSzUCXKWn86/mudcgUCu0O0zs2s41ePmFpKViWThmS+yTyjv+I2rp3BH5gGs8IQv
uqxt/o1YcfyuSJYl10dSdfZ7J/+neRvFdReR6EJP+cYfnljTQndPSK3nebqj6EMq
K1feKK2dRVKZH9xFSQKGN8Yaau01b/R6wT9/uNhj2mKYVXAcH+RZwDOa5dgGZlC1
0J9ou7FdML7g1c7jFxiNpdQdpUTABeLlmlV6ejsUlLaqa8rwibG6R5WDUXSgImHL
asONVzAzpaV8c9IG1Q1u+dZ6a6UYVu0fycUrtyY35gt0bpWoQ6ecY71aeEJ8e+DU
8kZpcZj2H2UCAwEAAaOCAWowggFmMAkGA1UdEwQCMAAwLQYJYIZIAYb4QgENBCAW
HkVhc3ktUlNBIEdlbmVyYXRlZCBDZXJ0aWZpY2F0ZTAdBgNVHQ4EFgQUo6ZkqHjf
wnFrmD72neYS+DrGauwwgdgGA1UdIwSB0DCBzYAUWQyvIPWrp+lLNF4HynLWsRWS
0VyhgamkgaYwgaMxCzAJBgNVBAYTAkNBMQswCQYDVQQIEwJCQzESMBAGA1UEBxMJ
VmFuY291dmVyMQ0wCwYDVQQKEwRUTVFSMR0wGwYDVQQLExRNeU9yZ2FuaXphdGlv
bmFsVW5pdDEQMA4GA1UEAxMHVE1RUiBDQTEQMA4GA1UEKRMHRWFzeVJTQTEhMB8G
CSqGSIb3DQEJARYSbWVAbXlob3N0Lm15ZG9tYWluggkAmXCc+lNI3J8wEwYDVR0l
BAwwCgYIKwYBBQUHAwIwCwYDVR0PBAQDAgeAMA4GA1UdEQQHMAWCA2JlbjANBgkq
hkiG9w0BAQsFAAOCAQEAhfXQfPx9bOA5SdQfMPzZD/EteRrhfzQspgWF9jZhEWpU
O7yPC4bC43lHJx4rO1oHK4va8ZNdKEaZJw3yRnVCbUpxsftdQKXpfz6LvsOBXnLP
IqULifrgyCVyGZYNbJ4TW1Yz7NdBFIpnQJw8yNmbZpjq6XGNYPPD1yQnigDpJTH3
XW0Dh4Xjk6g5NivCqUA0VpY9IWlRm5lZ2ZT0iRTre/HrpiVCq40HLFVsONi/5TpL
JjFwLy7Za6UrnXIAgttInPT4tVRCMN0jVjQm8QGia3hBu0L78asnIGN9KXBYCCWA
O93NNt/HiVaWLQu1M7hMX8kCuD3X3ZEiq/mYyG+8Lg==
-----END CERTIFICATE-----
